target datalayout = "e-m:e-p270:32:32-p271:32:32-p272:64:64-i64:64-i128:128-f80:128-n8:16:32:64-S128"
target triple = "x86_64-pc-linux-gnu"

%"class.std::unique_ptr" = type { %"struct.std::__uniq_ptr_data" }
%"struct.std::__uniq_ptr_data" = type { %"class.std::__uniq_ptr_impl" }
%"class.std::__uniq_ptr_impl" = type { %"class.std::tuple" }
%"class.std::tuple" = type { %"struct.std::_Tuple_impl" }
%"struct.std::_Tuple_impl" = type { %"struct.std::_Head_base.1" }
%"struct.std::_Head_base.1" = type { ptr }
%"class.google::protobuf::io::CopyingOutputStreamAdaptor" = type { %"class.google::protobuf::io::ZeroCopyOutputStream", ptr, i8, i8, i64, %"class.std::unique_ptr", i32, i32 }
%"class.google::protobuf::io::ZeroCopyOutputStream" = type { ptr }
%"class.google::protobuf::io::CopyingOutputStream" = type { ptr }
%"class.google::protobuf::io::OstreamOutputStream" = type { %"class.google::protobuf::io::ZeroCopyOutputStream", %"class.google::protobuf::io::OstreamOutputStream::CopyingOstreamOutputStream", %"class.google::protobuf::io::CopyingOutputStreamAdaptor" }
%"class.google::protobuf::io::OstreamOutputStream::CopyingOstreamOutputStream" = type { %"class.google::protobuf::io::CopyingOutputStream", ptr }

@_ZN6google8protobuf2io19OstreamOutputStream26CopyingOstreamOutputStreamD1Ev = unnamed_addr alias void (ptr), ptr @_ZN6google8protobuf2io19OstreamOutputStream26CopyingOstreamOutputStreamD2Ev

; Function Attrs: mustprogress nounwind uwtable
define linkonce_odr void @_ZN6google8protobuf2io20ZeroCopyOutputStreamD2Ev(ptr noundef nonnull align 8 dereferenceable(8) %0) unnamed_addr #5 comdat align 2 {
  %2 = alloca ptr, align 8
  store ptr %0, ptr %2, align 8
  ret void
}

; Function Attrs: mustprogress nounwind uwtable
define void @_ZN6google8protobuf2io19OstreamOutputStreamD2Ev(ptr noundef nonnull align 8 dereferenceable(72) %0) unnamed_addr #5 align 2 personality ptr @__gxx_personality_v0 {
  %2 = alloca ptr, align 8
  store ptr %0, ptr %2, align 8
  %3 = load ptr, ptr %2, align 8
  store ptr getelementptr inbounds inrange(-16, 56) ({ [9 x ptr] }, ptr @_ZTVN6google8protobuf2io19OstreamOutputStreamE, i32 0, i32 0, i32 2), ptr %3, align 8
  %4 = getelementptr inbounds %"class.google::protobuf::io::OstreamOutputStream", ptr %3, i32 0, i32 2
  %5 = invoke noundef zeroext i1 @_ZN6google8protobuf2io26CopyingOutputStreamAdaptor5FlushEv(ptr noundef nonnull align 8 dereferenceable(48) %4)
          to label %6 unwind label %9

6:                                                ; preds = %1
  %7 = getelementptr inbounds %"class.google::protobuf::io::OstreamOutputStream", ptr %3, i32 0, i32 2
  call void @_ZN6google8protobuf2io26CopyingOutputStreamAdaptorD1Ev(ptr noundef nonnull align 8 dereferenceable(48) %7) #3
  %8 = getelementptr inbounds %"class.google::protobuf::io::OstreamOutputStream", ptr %3, i32 0, i32 1
  call void @_ZN6google8protobuf2io19OstreamOutputStream26CopyingOstreamOutputStreamD1Ev(ptr noundef nonnull align 8 dereferenceable(16) %8) #3
  call void @_ZN6google8protobuf2io20ZeroCopyOutputStreamD2Ev(ptr noundef nonnull align 8 dereferenceable(8) %3) #3
  ret void

9:                                                ; preds = %1
  %10 = landingpad { ptr, i32 }
          catch ptr null
  %11 = extractvalue { ptr, i32 } %10, 0
  call void @__clang_call_terminate(ptr %11) #11
  unreachable
}