; Function Attrs: mustprogress nounwind uwtable
define void @_ZN6google8protobuf2io19OstreamOutputStreamD2Ev(ptr noundef nonnull align 8 dereferenceable(72) %0) unnamed_addr #5 align 2 personality ptr @__gxx_personality_v0 {
  store ptr getelementptr inbounds inrange(-16, 56) (i8, ptr @_ZTVN6google8protobuf2io19OstreamOutputStreamE, i64 16), ptr %0, align 8
  %2 = getelementptr inbounds i8, ptr %0, i64 24
  %3 = invoke noundef zeroext i1 @_ZN6google8protobuf2io26CopyingOutputStreamAdaptor5FlushEv(ptr noundef nonnull align 8 dereferenceable(48) %2)
          to label %4 unwind label %6

4:                                                ; preds = %1
  tail call void @_ZN6google8protobuf2io26CopyingOutputStreamAdaptorD1Ev(ptr noundef nonnull align 8 dereferenceable(48) %2) #12
  %5 = getelementptr inbounds i8, ptr %0, i64 8
  tail call void @_ZN6google8protobuf2io19OstreamOutputStream26CopyingOstreamOutputStreamD1Ev(ptr noundef nonnull align 8 dereferenceable(16) %5) #12
  ret void

6:                                                ; preds = %1
  %7 = landingpad { ptr, i32 }
          catch ptr null
  %8 = extractvalue { ptr, i32 } %7, 0
  tail call void @__clang_call_terminate(ptr %8) #14
  unreachable
}